target datalayout = "e-m:e-p270:32:32-p271:32:32-p272:64:64-i64:64-i128:128-f80:128-n8:16:32:64-S128"
target triple = "x86_64-pc-linux-gnu"

@.str.207 = private unnamed_addr constant [7 x i8] c"%-5.*f\00", align 1

; Function Attrs: inlinehint nounwind uwtable
define internal i32 @_blendif_print_digits_default(float noundef %0) #3 {
  %2 = alloca float, align 4
  %3 = alloca i32, align 4
  store float %0, ptr %2, align 4, !tbaa !83
  call void @llvm.lifetime.start.p0(i64 4, ptr %3) #11
  %4 = load float, ptr %2, align 4, !tbaa !83
  %5 = fcmp reassoc nsz arcp contract afn olt float %4, 0x3F1A36E2E0000000
  br i1 %5, label %6, label %7

6:                                                ; preds = %1
  store i32 0, ptr %3, align 4, !tbaa !80
  br label %18

7:                                                ; preds = %1
  %8 = load float, ptr %2, align 4, !tbaa !83
  %9 = fcmp reassoc nsz arcp contract afn olt float %8, 0x3F847AE140000000
  br i1 %9, label %10, label %11

10:                                               ; preds = %7
  store i32 2, ptr %3, align 4, !tbaa !80
  br label %17

11:                                               ; preds = %7
  %12 = load float, ptr %2, align 4, !tbaa !83
  %13 = fcmp reassoc nsz arcp contract afn olt float %12, 0x3FEFF7CEE0000000
  br i1 %13, label %14, label %15

14:                                               ; preds = %11
  store i32 1, ptr %3, align 4, !tbaa !80
  br label %16

15:                                               ; preds = %11
  store i32 0, ptr %3, align 4, !tbaa !80
  br label %16

16:                                               ; preds = %15, %14
  br label %17

17:                                               ; preds = %16, %10
  br label %18

18:                                               ; preds = %17, %6
  %19 = load i32, ptr %3, align 4, !tbaa !80
  call void @llvm.lifetime.end.p0(i64 4, ptr %3) #11
  ret i32 %19
}

; Function Attrs: nounwind uwtable
define internal void @_blendif_scale_print_default(float noundef %0, float noundef %1, ptr noundef %2, i32 noundef %3) #0 {
  %5 = alloca float, align 4
  %6 = alloca float, align 4
  %7 = alloca ptr, align 8
  %8 = alloca i32, align 4
  %9 = alloca float, align 4
  store float %0, ptr %5, align 4, !tbaa !83
  store float %1, ptr %6, align 4, !tbaa !83
  store ptr %2, ptr %7, align 8, !tbaa !141
  store i32 %3, ptr %8, align 4, !tbaa !80
  call void @llvm.lifetime.start.p0(i64 4, ptr %9) #11
  %10 = load float, ptr %5, align 4, !tbaa !83
  %11 = load float, ptr %6, align 4, !tbaa !83
  %12 = fmul reassoc nsz arcp contract afn float %10, %11
  store float %12, ptr %9, align 4, !tbaa !83
  %13 = load ptr, ptr %7, align 8, !tbaa !141
  %14 = load i32, ptr %8, align 4, !tbaa !80
  %15 = sext i32 %14 to i64
  %16 = load float, ptr %9, align 4, !tbaa !83
  %17 = call i32 @_blendif_print_digits_default(float noundef %16)
  %18 = load float, ptr %9, align 4, !tbaa !83
  %19 = fmul reassoc nsz arcp contract afn float %18, 1.000000e+02
  %20 = fpext reassoc nsz arcp contract afn float %19 to double
  %21 = call i32 (ptr, i64, ptr, ...) @snprintf(ptr noundef %13, i64 noundef %15, ptr noundef @.str.207, i32 noundef %17, double noundef %20) #11
  call void @llvm.lifetime.end.p0(i64 4, ptr %9) #11
  ret void
}