; Function Attrs: nofree nounwind uwtable
define internal void @_blendif_scale_print_default(float noundef %0, float noundef %1, ptr noundef writeonly captures(none) %2, i32 noundef %3) #4 {
  %5 = fmul reassoc nsz arcp contract afn float %1, %0
  %6 = fcmp reassoc nsz arcp contract afn olt float %5, 0x3F1A36E2E0000000
  br i1 %6, label %_blendif_print_digits_default.exit, label %7

7:                                                ; preds = %4
  %8 = fcmp reassoc nsz arcp contract afn olt float %5, 0x3F847AE140000000
  br i1 %8, label %_blendif_print_digits_default.exit, label %9

9:                                                ; preds = %7
  %10 = fcmp reassoc nsz arcp contract afn olt float %5, 0x3FEFF7CEE0000000
  %..i = zext i1 %10 to i32
  br label %_blendif_print_digits_default.exit

_blendif_print_digits_default.exit:               ; preds = %4, %7, %9
  %.0.i = phi i32 [ 0, %4 ], [ 2, %7 ], [ %..i, %9 ]
  %11 = sext i32 %3 to i64
  %12 = fmul reassoc nsz arcp contract afn float %5, 1.000000e+02
  %13 = fpext reassoc nsz arcp contract afn float %12 to double
  %14 = tail call i32 (ptr, i64, ptr, ...) @snprintf(ptr noundef %2, i64 noundef %11, ptr noundef nonnull @.str.207, i32 noundef %.0.i, double noundef %13) #18
  ret void
}